
Memory Configuration

Name             Origin             Length             Attributes
*default*        0x0000000000000000 0xffffffffffffffff

Linker script and memory map

                0x0000000000000000                . = 0x0

.text           0x0000000000000000     0x2000
 *(.text)
 .text          0x0000000000000000     0x16ee boot/head.o
                0x0000000000000000                startup_32
                0x000000000000010b                setup_gdt
                0x0000000000000113                setup_idt
                0x0000000000000130                rp_sidt
                0x0000000000000143                set_base
                0x0000000000000158                write_char
                0x000000000000024c                ignore_int
                0x0000000000000262                timer_interrupt_dumm
                0x0000000000000264                timer_interrupt
                0x00000000000002d8                system_interrupt
                0x00000000000002ef                current
                0x00000000000002f3                scr_loc
                0x00000000000002f7                cursor_x
                0x00000000000002f8                cursor_y
                0x0000000000000308                lidt_opcode
                0x0000000000000310                lgdt_opcode
                0x0000000000000318                idt
                0x0000000000000b18                gdt
                0x0000000000000b58                end_gdt
                0x0000000000000d58                stack_ptr
                0x0000000000000d60                ldt0
                0x0000000000000d78                tss0
                0x0000000000000fe0                stack0_krn_ptr
                0x0000000000000fe8                ldt1
                0x0000000000001000                tss1
                0x0000000000001268                stack1_krn_ptr
                0x000000000000126c                task0
                0x00000000000014a9                stack0_ptr
                0x00000000000014ad                task1
                0x00000000000016ea                stack1_ptr
 .text          0x00000000000016ee      0x47b monitor.o
                0x000000000000180d                monitor_put
                0x0000000000001935                monitor_clear
                0x0000000000001986                monitor_write
                0x00000000000019c9                monitor_write_hex
                0x0000000000001a8f                monitor_write_dec
 .text          0x0000000000001b69       0xc3 common.o
                0x0000000000001b69                outb
                0x0000000000001b88                inb
                0x0000000000001ba5                inw
                0x0000000000001bc4                memcpy
                0x0000000000001bfc                memset
                0x0000000000002000                . = 0x2000
 *fill*         0x0000000000001c2c      0x3d4 

.rodata         0x0000000000002000        0x3
 .rodata        0x0000000000002000        0x3 monitor.o

.eh_frame       0x0000000000002004      0x1b0
 .eh_frame      0x0000000000002004       0xf8 monitor.o
 .eh_frame      0x00000000000020fc       0xb8 common.o

.data           0x00000000000021b4        0x4
 *(.data)
 .data          0x00000000000021b4        0x0 boot/head.o
 .data          0x00000000000021b4        0x4 monitor.o
                0x00000000000021b4                video_memory
 .data          0x00000000000021b8        0x0 common.o
LOAD boot/head.o
LOAD monitor.o
LOAD common.o
OUTPUT(tools/system binary)

.bss            0x00000000000021b8        0x0
 .bss           0x00000000000021b8        0x0 boot/head.o
 .bss           0x00000000000021b8        0x0 monitor.o
 .bss           0x00000000000021b8        0x0 common.o

.debug_line     0x0000000000000000      0x153
 .debug_line    0x0000000000000000      0x153 boot/head.o

.debug_info     0x0000000000000000       0xbc
 .debug_info    0x0000000000000000       0xbc boot/head.o

.debug_abbrev   0x0000000000000000       0x14
 .debug_abbrev  0x0000000000000000       0x14 boot/head.o

.debug_aranges  0x0000000000000000       0x20
 .debug_aranges
                0x0000000000000000       0x20 boot/head.o

.comment        0x0000000000000000       0x5c
 .comment       0x0000000000000000       0x2e monitor.o
 .comment       0x000000000000002e       0x2e common.o

.note.GNU-stack
                0x0000000000000000        0x0
 .note.GNU-stack
                0x0000000000000000        0x0 monitor.o
 .note.GNU-stack
                0x0000000000000000        0x0 common.o
